; Function Attrs: nounwind uwtable
define internal zeroext i1 @GENERIC_GetStoragePathInfo(ptr noundef %0, ptr noundef %1, ptr noundef %2) #0 {
  %4 = alloca ptr, align 8
  call void @llvm.lifetime.start.p0(i64 8, ptr nonnull %4) #4
  store ptr null, ptr %4, align 8
  %.not.i = icmp eq ptr %0, null
  %5 = select i1 %.not.i, ptr @.str.6, ptr %0
  %6 = call i32 (ptr, ptr, ...) @SDL_asprintf_REAL(ptr noundef nonnull %4, ptr noundef nonnull @.str.4, ptr noundef nonnull %5, ptr noundef %1) #4
  %7 = load ptr, ptr %4, align 8
  call void @llvm.lifetime.end.p0(i64 8, ptr nonnull %4) #4
  %.not = icmp eq ptr %7, null
  br i1 %.not, label %10, label %8

8:                                                ; preds = %3
  %9 = call zeroext i1 @SDL_GetPathInfo_REAL(ptr noundef nonnull %7, ptr noundef %2) #4
  call void @SDL_free_REAL(ptr noundef nonnull %7) #4
  br label %10

10:                                               ; preds = %8, %3
  %.0 = phi i1 [ %9, %8 ], [ false, %3 ]
  ret i1 %.0
}